target datalayout = "e-m:e-p270:32:32-p271:32:32-p272:64:64-i64:64-i128:128-f80:128-n8:16:32:64-S128"
target triple = "x86_64-pc-linux-gnu"

; Function Attrs: nounwind uwtable
define internal void @scale_samples_dbl(ptr noundef %0, ptr noundef %1, i32 noundef %2, i32 noundef %3, double noundef %4) #1 {
  %6 = alloca ptr, align 8
  %7 = alloca ptr, align 8
  %8 = alloca i32, align 4
  %9 = alloca i32, align 4
  %10 = alloca double, align 8
  %11 = alloca ptr, align 8
  %12 = alloca ptr, align 8
  %13 = alloca i32, align 4
  %14 = alloca i32, align 4
  %15 = alloca i32, align 4
  store ptr %0, ptr %6, align 8, !tbaa !77
  store ptr %1, ptr %7, align 8, !tbaa !77
  store i32 %2, ptr %8, align 4, !tbaa !30
  store i32 %3, ptr %9, align 4, !tbaa !30
  store double %4, ptr %10, align 8, !tbaa !78
  call void @llvm.lifetime.start.p0(i64 8, ptr %11) #10
  %16 = load ptr, ptr %6, align 8, !tbaa !77
  %17 = getelementptr inbounds ptr, ptr %16, i64 0
  %18 = load ptr, ptr %17, align 8, !tbaa !29
  store ptr %18, ptr %11, align 8, !tbaa !79
  call void @llvm.lifetime.start.p0(i64 8, ptr %12) #10
  %19 = load ptr, ptr %7, align 8, !tbaa !77
  %20 = getelementptr inbounds ptr, ptr %19, i64 0
  %21 = load ptr, ptr %20, align 8, !tbaa !29
  store ptr %21, ptr %12, align 8, !tbaa !79
  call void @llvm.lifetime.start.p0(i64 4, ptr %13) #10
  call void @llvm.lifetime.start.p0(i64 4, ptr %14) #10
  call void @llvm.lifetime.start.p0(i64 4, ptr %15) #10
  store i32 0, ptr %15, align 4, !tbaa !30
  store i32 0, ptr %13, align 4, !tbaa !30
  br label %22

22:                                               ; preds = %49, %5
  %23 = load i32, ptr %13, align 4, !tbaa !30
  %24 = load i32, ptr %8, align 4, !tbaa !30
  %25 = icmp slt i32 %23, %24
  br i1 %25, label %26, label %52

26:                                               ; preds = %22
  store i32 0, ptr %14, align 4, !tbaa !30
  br label %27

27:                                               ; preds = %43, %26
  %28 = load i32, ptr %14, align 4, !tbaa !30
  %29 = load i32, ptr %9, align 4, !tbaa !30
  %30 = icmp slt i32 %28, %29
  br i1 %30, label %31, label %48

31:                                               ; preds = %27
  %32 = load ptr, ptr %12, align 8, !tbaa !79
  %33 = load i32, ptr %15, align 4, !tbaa !30
  %34 = sext i32 %33 to i64
  %35 = getelementptr inbounds double, ptr %32, i64 %34
  %36 = load double, ptr %35, align 8, !tbaa !78
  %37 = load double, ptr %10, align 8, !tbaa !78
  %38 = fmul nsz double %36, %37
  %39 = load ptr, ptr %11, align 8, !tbaa !79
  %40 = load i32, ptr %15, align 4, !tbaa !30
  %41 = sext i32 %40 to i64
  %42 = getelementptr inbounds double, ptr %39, i64 %41
  store double %38, ptr %42, align 8, !tbaa !78
  br label %43

43:                                               ; preds = %31
  %44 = load i32, ptr %14, align 4, !tbaa !30
  %45 = add nsw i32 %44, 1
  store i32 %45, ptr %14, align 4, !tbaa !30
  %46 = load i32, ptr %15, align 4, !tbaa !30
  %47 = add nsw i32 %46, 1
  store i32 %47, ptr %15, align 4, !tbaa !30
  br label %27, !llvm.loop !82

48:                                               ; preds = %27
  br label %49

49:                                               ; preds = %48
  %50 = load i32, ptr %13, align 4, !tbaa !30
  %51 = add nsw i32 %50, 1
  store i32 %51, ptr %13, align 4, !tbaa !30
  br label %22, !llvm.loop !83

52:                                               ; preds = %22
  call void @llvm.lifetime.end.p0(i64 4, ptr %15) #10
  call void @llvm.lifetime.end.p0(i64 4, ptr %14) #10
  call void @llvm.lifetime.end.p0(i64 4, ptr %13) #10
  call void @llvm.lifetime.end.p0(i64 8, ptr %12) #10
  call void @llvm.lifetime.end.p0(i64 8, ptr %11) #10
  ret void
}